target datalayout = "e-m:e-p270:32:32-p271:32:32-p272:64:64-i64:64-i128:128-f80:128-n8:16:32:64-S128"
target triple = "x86_64-pc-linux-gnu"

%"class.cv::Mat" = type { i32, i32, i32, i32, ptr, ptr, ptr, ptr, ptr, ptr, %"struct.cv::MatSize", %"struct.cv::MatStep" }
%"struct.cv::MatSize" = type { ptr }
%"struct.cv::MatStep" = type { ptr, [2 x i64] }
%"struct.cv::ml::TreeParams" = type <{ i8, i8, i8, [5 x i8], %"class.cv::Mat", i32, i32, i32, i32, float, [4 x i8] }>

; Function Attrs: mustprogress uwtable
define hidden void @_ZN2cv2ml10TreeParamsC2EiidbiibbRKNS_3MatE(ptr noundef nonnull align 8 dereferenceable(124) %0, i32 noundef %1, i32 noundef %2, double noundef %3, i1 noundef zeroext %4, i32 noundef %5, i32 noundef %6, i1 noundef zeroext %7, i1 noundef zeroext %8, ptr noundef nonnull align 8 dereferenceable(96) %9) unnamed_addr #4 align 2 personality ptr @__gxx_personality_v0 {
  %11 = alloca ptr, align 8
  %12 = alloca i32, align 4
  %13 = alloca i32, align 4
  %14 = alloca double, align 8
  %15 = alloca i8, align 1
  %16 = alloca i32, align 4
  %17 = alloca i32, align 4
  %18 = alloca i8, align 1
  %19 = alloca i8, align 1
  %20 = alloca ptr, align 8
  %21 = alloca ptr, align 8
  %22 = alloca i32, align 4
  store ptr %0, ptr %11, align 8, !tbaa !3
  store i32 %1, ptr %12, align 4, !tbaa !28
  store i32 %2, ptr %13, align 4, !tbaa !28
  store double %3, ptr %14, align 8, !tbaa !29
  %23 = zext i1 %4 to i8
  store i8 %23, ptr %15, align 1, !tbaa !31
  store i32 %5, ptr %16, align 4, !tbaa !28
  store i32 %6, ptr %17, align 4, !tbaa !28
  %24 = zext i1 %7 to i8
  store i8 %24, ptr %18, align 1, !tbaa !31
  %25 = zext i1 %8 to i8
  store i8 %25, ptr %19, align 1, !tbaa !31
  store ptr %9, ptr %20, align 8, !tbaa !32
  %26 = load ptr, ptr %11, align 8
  %27 = getelementptr inbounds nuw %"struct.cv::ml::TreeParams", ptr %26, i32 0, i32 4
  call void @_ZN2cv3MatC1Ev(ptr noundef nonnull align 8 dereferenceable(96) %27) #3
  %28 = load i32, ptr %12, align 4, !tbaa !28
  %29 = getelementptr inbounds nuw %"struct.cv::ml::TreeParams", ptr %26, i32 0, i32 6
  store i32 %28, ptr %29, align 4, !tbaa !8
  %30 = load i32, ptr %13, align 4, !tbaa !28
  %31 = getelementptr inbounds nuw %"struct.cv::ml::TreeParams", ptr %26, i32 0, i32 7
  store i32 %30, ptr %31, align 8, !tbaa !21
  %32 = load double, ptr %14, align 8, !tbaa !29
  %33 = fptrunc double %32 to float
  %34 = getelementptr inbounds nuw %"struct.cv::ml::TreeParams", ptr %26, i32 0, i32 9
  store float %33, ptr %34, align 8, !tbaa !22
  %35 = load i8, ptr %15, align 1, !tbaa !31, !range !34, !noundef !35
  %36 = trunc i8 %35 to i1
  %37 = getelementptr inbounds nuw %"struct.cv::ml::TreeParams", ptr %26, i32 0, i32 0
  %38 = zext i1 %36 to i8
  store i8 %38, ptr %37, align 8, !tbaa !23
  %39 = load i32, ptr %16, align 4, !tbaa !28
  %40 = getelementptr inbounds nuw %"struct.cv::ml::TreeParams", ptr %26, i32 0, i32 5
  store i32 %39, ptr %40, align 8, !tbaa !24
  %41 = load i32, ptr %17, align 4, !tbaa !28
  %42 = getelementptr inbounds nuw %"struct.cv::ml::TreeParams", ptr %26, i32 0, i32 8
  store i32 %41, ptr %42, align 4, !tbaa !25
  %43 = load i8, ptr %18, align 1, !tbaa !31, !range !34, !noundef !35
  %44 = trunc i8 %43 to i1
  %45 = getelementptr inbounds nuw %"struct.cv::ml::TreeParams", ptr %26, i32 0, i32 1
  %46 = zext i1 %44 to i8
  store i8 %46, ptr %45, align 1, !tbaa !26
  %47 = load i8, ptr %19, align 1, !tbaa !31, !range !34, !noundef !35
  %48 = trunc i8 %47 to i1
  %49 = getelementptr inbounds nuw %"struct.cv::ml::TreeParams", ptr %26, i32 0, i32 2
  %50 = zext i1 %48 to i8
  store i8 %50, ptr %49, align 2, !tbaa !27
  %51 = load ptr, ptr %20, align 8, !tbaa !32
  %52 = getelementptr inbounds nuw %"struct.cv::ml::TreeParams", ptr %26, i32 0, i32 4
  %53 = invoke noundef nonnull align 8 dereferenceable(96) ptr @_ZN2cv3MataSERKS0_(ptr noundef nonnull align 8 dereferenceable(96) %52, ptr noundef nonnull align 8 dereferenceable(96) %51)
          to label %54 unwind label %55

54:                                               ; preds = %10
  ret void

55:                                               ; preds = %10
  %56 = landingpad { ptr, i32 }
          cleanup
  %57 = extractvalue { ptr, i32 } %56, 0
  store ptr %57, ptr %21, align 8
  %58 = extractvalue { ptr, i32 } %56, 1
  store i32 %58, ptr %22, align 4
  call void @_ZN2cv3MatD1Ev(ptr noundef nonnull align 8 dereferenceable(96) %27) #3
  br label %59

59:                                               ; preds = %55
  %60 = load ptr, ptr %21, align 8
  %61 = load i32, ptr %22, align 4
  %62 = insertvalue { ptr, i32 } poison, ptr %60, 0
  %63 = insertvalue { ptr, i32 } %62, i32 %61, 1
  resume { ptr, i32 } %63
}