; Function Attrs: mustprogress uwtable
define hidden void @_ZN2cv2ml10TreeParamsC2EiidbiibbRKNS_3MatE(ptr noundef nonnull align 8 dereferenceable(124) %0, i32 noundef %1, i32 noundef %2, double noundef %3, i1 noundef zeroext %4, i32 noundef %5, i32 noundef %6, i1 noundef zeroext %7, i1 noundef zeroext %8, ptr noundef nonnull align 8 dereferenceable(96) %9) unnamed_addr #3 align 2 personality ptr @__gxx_personality_v0 {
  %11 = zext i1 %4 to i8
  %12 = zext i1 %7 to i8
  %13 = zext i1 %8 to i8
  %14 = getelementptr inbounds nuw i8, ptr %0, i64 8
  tail call void @_ZN2cv3MatC1Ev(ptr noundef nonnull align 8 dereferenceable(96) %14) #26
  %15 = getelementptr inbounds nuw i8, ptr %0, i64 108
  store i32 %1, ptr %15, align 4, !tbaa !3
  %16 = getelementptr inbounds nuw i8, ptr %0, i64 112
  store i32 %2, ptr %16, align 8, !tbaa !19
  %17 = fptrunc double %3 to float
  %18 = getelementptr inbounds nuw i8, ptr %0, i64 120
  store float %17, ptr %18, align 8, !tbaa !20
  store i8 %11, ptr %0, align 8, !tbaa !21
  %19 = getelementptr inbounds nuw i8, ptr %0, i64 104
  store i32 %5, ptr %19, align 8, !tbaa !22
  %20 = getelementptr inbounds nuw i8, ptr %0, i64 116
  store i32 %6, ptr %20, align 4, !tbaa !23
  %21 = getelementptr inbounds nuw i8, ptr %0, i64 1
  store i8 %12, ptr %21, align 1, !tbaa !24
  %22 = getelementptr inbounds nuw i8, ptr %0, i64 2
  store i8 %13, ptr %22, align 2, !tbaa !25
  %23 = invoke noundef nonnull align 8 dereferenceable(96) ptr @_ZN2cv3MataSERKS0_(ptr noundef nonnull align 8 dereferenceable(96) %14, ptr noundef nonnull align 8 dereferenceable(96) %9)
          to label %24 unwind label %25

24:                                               ; preds = %10
  ret void

25:                                               ; preds = %10
  %26 = landingpad { ptr, i32 }
          cleanup
  tail call void @_ZN2cv3MatD1Ev(ptr noundef nonnull align 8 dereferenceable(96) %14) #26
  resume { ptr, i32 } %26
}